target datalayout = "e-m:e-p270:32:32-p271:32:32-p272:64:64-i64:64-i128:128-f80:128-n8:16:32:64-S128"
target triple = "x86_64-pc-linux-gnu"

%struct.ident_t = type { i32, i32, i32, i32, ptr }
%class.anon.165 = type { ptr, ptr, ptr, ptr, ptr }

@1 = private unnamed_addr constant %struct.ident_t { i32 0, i32 514, i32 0, i32 22, ptr @0 }, align 8

; Function Attrs: noinline noreturn nounwind ssp uwtable
define linkonce_odr hidden void @__clang_call_terminate(ptr noundef %0) #8 comdat {
  %2 = call ptr @__cxa_begin_catch(ptr %0) #11
  call void @_ZSt9terminatev() #28
  unreachable
}

; Function Attrs: inlinehint mustprogress nounwind ssp uwtable
define internal void @"_ZZZZN6open3d4core8TriulCPUERKNS0_6TensorERS1_S4_iENK3$_0clEvENKUlvE3_clEvENKUllE_clEl"(ptr noundef nonnull align 8 dereferenceable(40) %0, i64 noundef %1) #3 align 2 {
  %3 = alloca ptr, align 8
  %4 = alloca i64, align 8
  %5 = alloca i64, align 8
  %6 = alloca i64, align 8
  store ptr %0, ptr %3, align 8, !tbaa !13
  store i64 %1, ptr %4, align 8, !tbaa !21
  %7 = load ptr, ptr %3, align 8
  call void @llvm.lifetime.start.p0(i64 8, ptr %5) #11
  %8 = load i64, ptr %4, align 8, !tbaa !21
  %9 = getelementptr inbounds nuw %class.anon.165, ptr %7, i32 0, i32 0
  %10 = load ptr, ptr %9, align 8, !tbaa !1036
  %11 = load i32, ptr %10, align 4, !tbaa !9
  %12 = sext i32 %11 to i64
  %13 = sdiv i64 %8, %12
  store i64 %13, ptr %5, align 8, !tbaa !21
  call void @llvm.lifetime.start.p0(i64 8, ptr %6) #11
  %14 = load i64, ptr %4, align 8, !tbaa !21
  %15 = getelementptr inbounds nuw %class.anon.165, ptr %7, i32 0, i32 0
  %16 = load ptr, ptr %15, align 8, !tbaa !1036
  %17 = load i32, ptr %16, align 4, !tbaa !9
  %18 = sext i32 %17 to i64
  %19 = srem i64 %14, %18
  store i64 %19, ptr %6, align 8, !tbaa !21
  %20 = load i64, ptr %6, align 8, !tbaa !21
  %21 = load i64, ptr %5, align 8, !tbaa !21
  %22 = sub nsw i64 %20, %21
  %23 = getelementptr inbounds nuw %class.anon.165, ptr %7, i32 0, i32 1
  %24 = load ptr, ptr %23, align 8, !tbaa !1038
  %25 = load i32, ptr %24, align 4, !tbaa !9
  %26 = sext i32 %25 to i64
  %27 = icmp slt i64 %22, %26
  br i1 %27, label %28, label %47

28:                                               ; preds = %2
  %29 = getelementptr inbounds nuw %class.anon.165, ptr %7, i32 0, i32 3
  %30 = load ptr, ptr %29, align 8, !tbaa !1039
  %31 = load ptr, ptr %30, align 8, !tbaa !11
  %32 = load i64, ptr %5, align 8, !tbaa !21
  %33 = getelementptr inbounds nuw %class.anon.165, ptr %7, i32 0, i32 0
  %34 = load ptr, ptr %33, align 8, !tbaa !1036
  %35 = load i32, ptr %34, align 4, !tbaa !9
  %36 = sext i32 %35 to i64
  %37 = mul nsw i64 %32, %36
  %38 = load i64, ptr %6, align 8, !tbaa !21
  %39 = add nsw i64 %37, %38
  %40 = getelementptr inbounds i32, ptr %31, i64 %39
  %41 = load i32, ptr %40, align 4, !tbaa !9
  %42 = getelementptr inbounds nuw %class.anon.165, ptr %7, i32 0, i32 2
  %43 = load ptr, ptr %42, align 8, !tbaa !1040
  %44 = load ptr, ptr %43, align 8, !tbaa !11
  %45 = load i64, ptr %4, align 8, !tbaa !21
  %46 = getelementptr inbounds i32, ptr %44, i64 %45
  store i32 %41, ptr %46, align 4, !tbaa !9
  br label %100

47:                                               ; preds = %2
  %48 = load i64, ptr %6, align 8, !tbaa !21
  %49 = load i64, ptr %5, align 8, !tbaa !21
  %50 = sub nsw i64 %48, %49
  %51 = getelementptr inbounds nuw %class.anon.165, ptr %7, i32 0, i32 1
  %52 = load ptr, ptr %51, align 8, !tbaa !1038
  %53 = load i32, ptr %52, align 4, !tbaa !9
  %54 = sext i32 %53 to i64
  %55 = icmp sgt i64 %50, %54
  br i1 %55, label %56, label %75

56:                                               ; preds = %47
  %57 = getelementptr inbounds nuw %class.anon.165, ptr %7, i32 0, i32 3
  %58 = load ptr, ptr %57, align 8, !tbaa !1039
  %59 = load ptr, ptr %58, align 8, !tbaa !11
  %60 = load i64, ptr %5, align 8, !tbaa !21
  %61 = getelementptr inbounds nuw %class.anon.165, ptr %7, i32 0, i32 0
  %62 = load ptr, ptr %61, align 8, !tbaa !1036
  %63 = load i32, ptr %62, align 4, !tbaa !9
  %64 = sext i32 %63 to i64
  %65 = mul nsw i64 %60, %64
  %66 = load i64, ptr %6, align 8, !tbaa !21
  %67 = add nsw i64 %65, %66
  %68 = getelementptr inbounds i32, ptr %59, i64 %67
  %69 = load i32, ptr %68, align 4, !tbaa !9
  %70 = getelementptr inbounds nuw %class.anon.165, ptr %7, i32 0, i32 4
  %71 = load ptr, ptr %70, align 8, !tbaa !1041
  %72 = load ptr, ptr %71, align 8, !tbaa !11
  %73 = load i64, ptr %4, align 8, !tbaa !21
  %74 = getelementptr inbounds i32, ptr %72, i64 %73
  store i32 %69, ptr %74, align 4, !tbaa !9
  br label %99

75:                                               ; preds = %47
  %76 = getelementptr inbounds nuw %class.anon.165, ptr %7, i32 0, i32 2
  %77 = load ptr, ptr %76, align 8, !tbaa !1040
  %78 = load ptr, ptr %77, align 8, !tbaa !11
  %79 = load i64, ptr %4, align 8, !tbaa !21
  %80 = getelementptr inbounds i32, ptr %78, i64 %79
  store i32 1, ptr %80, align 4, !tbaa !9
  %81 = getelementptr inbounds nuw %class.anon.165, ptr %7, i32 0, i32 3
  %82 = load ptr, ptr %81, align 8, !tbaa !1039
  %83 = load ptr, ptr %82, align 8, !tbaa !11
  %84 = load i64, ptr %5, align 8, !tbaa !21
  %85 = getelementptr inbounds nuw %class.anon.165, ptr %7, i32 0, i32 0
  %86 = load ptr, ptr %85, align 8, !tbaa !1036
  %87 = load i32, ptr %86, align 4, !tbaa !9
  %88 = sext i32 %87 to i64
  %89 = mul nsw i64 %84, %88
  %90 = load i64, ptr %6, align 8, !tbaa !21
  %91 = add nsw i64 %89, %90
  %92 = getelementptr inbounds i32, ptr %83, i64 %91
  %93 = load i32, ptr %92, align 4, !tbaa !9
  %94 = getelementptr inbounds nuw %class.anon.165, ptr %7, i32 0, i32 4
  %95 = load ptr, ptr %94, align 8, !tbaa !1041
  %96 = load ptr, ptr %95, align 8, !tbaa !11
  %97 = load i64, ptr %4, align 8, !tbaa !21
  %98 = getelementptr inbounds i32, ptr %96, i64 %97
  store i32 %93, ptr %98, align 4, !tbaa !9
  br label %99

99:                                               ; preds = %75, %56
  br label %100

100:                                              ; preds = %99, %28
  call void @llvm.lifetime.end.p0(i64 8, ptr %6) #11
  call void @llvm.lifetime.end.p0(i64 8, ptr %5) #11
  ret void
}

; Function Attrs: alwaysinline norecurse nounwind ssp uwtable
define internal void @"_ZN6open3d4core15ParallelForCPU_IZZZNS0_8TriulCPUERKNS0_6TensorERS2_S5_iENK3$_0clEvENKUlvE3_clEvEUllE_EEvRKNS0_6DeviceElRKT_.omp_outlined"(ptr noalias noundef %0, ptr noalias noundef %1, ptr noundef nonnull align 8 dereferenceable(8) %2, ptr noundef nonnull align 8 dereferenceable(40) %3) #10 personality ptr @__gxx_personality_v0 {
  %5 = alloca ptr, align 8
  %6 = alloca ptr, align 8
  %7 = alloca ptr, align 8
  %8 = alloca ptr, align 8
  %9 = alloca ptr, align 8
  %10 = alloca i64, align 8
  %11 = alloca i64, align 8
  %12 = alloca i64, align 8
  %13 = alloca i64, align 8
  %14 = alloca i64, align 8
  %15 = alloca i64, align 8
  %16 = alloca i64, align 8
  %17 = alloca i32, align 4
  %18 = alloca i64, align 8
  store ptr %0, ptr %5, align 8, !tbaa !11
  store ptr %1, ptr %6, align 8, !tbaa !11
  store ptr %2, ptr %7, align 8, !tbaa !67
  store ptr %3, ptr %8, align 8, !tbaa !13
  %19 = load ptr, ptr %7, align 8, !tbaa !67
  %20 = load ptr, ptr %8, align 8, !tbaa !13
  store ptr %20, ptr %9, align 8
  call void @llvm.lifetime.start.p0(i64 8, ptr %10) #11
  call void @llvm.lifetime.start.p0(i64 8, ptr %11) #11
  %21 = load i64, ptr %19, align 8, !tbaa !21
  store i64 %21, ptr %11, align 8, !tbaa !21
  call void @llvm.lifetime.start.p0(i64 8, ptr %12) #11
  %22 = load i64, ptr %11, align 8, !tbaa !21
  %23 = sub nsw i64 %22, 0
  %24 = sdiv i64 %23, 1
  %25 = sub nsw i64 %24, 1
  store i64 %25, ptr %12, align 8, !tbaa !21
  call void @llvm.lifetime.start.p0(i64 8, ptr %13) #11
  store i64 0, ptr %13, align 8, !tbaa !21
  call void @llvm.lifetime.end.p0(i64 8, ptr %13) #11
  %26 = load i64, ptr %11, align 8, !tbaa !21
  %27 = icmp slt i64 0, %26
  br i1 %27, label %28, label %62

28:                                               ; preds = %4
  call void @llvm.lifetime.start.p0(i64 8, ptr %14) #11
  store i64 0, ptr %14, align 8, !tbaa !21
  call void @llvm.lifetime.start.p0(i64 8, ptr %15) #11
  %29 = load i64, ptr %12, align 8, !tbaa !21
  store i64 %29, ptr %15, align 8, !tbaa !21
  call void @llvm.lifetime.start.p0(i64 8, ptr %16) #11
  store i64 1, ptr %16, align 8, !tbaa !21
  call void @llvm.lifetime.start.p0(i64 4, ptr %17) #11
  store i32 0, ptr %17, align 4, !tbaa !9
  call void @llvm.lifetime.start.p0(i64 8, ptr %18) #11
  %30 = load ptr, ptr %5, align 8
  %31 = load i32, ptr %30, align 4, !tbaa !9
  call void @__kmpc_for_static_init_8(ptr @1, i32 %31, i32 34, ptr %17, ptr %14, ptr %15, ptr %16, i64 1, i64 1)
  %32 = load i64, ptr %15, align 8, !tbaa !21
  %33 = load i64, ptr %12, align 8, !tbaa !21
  %34 = icmp sgt i64 %32, %33
  br i1 %34, label %35, label %37

35:                                               ; preds = %28
  %36 = load i64, ptr %12, align 8, !tbaa !21
  br label %39

37:                                               ; preds = %28
  %38 = load i64, ptr %15, align 8, !tbaa !21
  br label %39

39:                                               ; preds = %37, %35
  %40 = phi i64 [ %36, %35 ], [ %38, %37 ]
  store i64 %40, ptr %15, align 8, !tbaa !21
  %41 = load i64, ptr %14, align 8, !tbaa !21
  store i64 %41, ptr %10, align 8, !tbaa !21
  br label %42

42:                                               ; preds = %55, %39
  %43 = load i64, ptr %10, align 8, !tbaa !21
  %44 = load i64, ptr %15, align 8, !tbaa !21
  %45 = icmp sle i64 %43, %44
  br i1 %45, label %47, label %46

46:                                               ; preds = %42
  br label %58

47:                                               ; preds = %42
  %48 = load i64, ptr %10, align 8, !tbaa !21
  %49 = mul nsw i64 %48, 1
  %50 = add nsw i64 0, %49
  store i64 %50, ptr %18, align 8, !tbaa !21
  %51 = load ptr, ptr %9, align 8, !tbaa !13
  %52 = load i64, ptr %18, align 8, !tbaa !21
  invoke void @"_ZZZZN6open3d4core8TriulCPUERKNS0_6TensorERS1_S4_iENK3$_0clEvENKUlvE3_clEvENKUllE_clEl"(ptr noundef nonnull align 8 dereferenceable(40) %51, i64 noundef %52)
          to label %53 unwind label %63

53:                                               ; preds = %47
  br label %54

54:                                               ; preds = %53
  br label %55

55:                                               ; preds = %54
  %56 = load i64, ptr %10, align 8, !tbaa !21
  %57 = add nsw i64 %56, 1
  store i64 %57, ptr %10, align 8, !tbaa !21
  br label %42

58:                                               ; preds = %46
  br label %59

59:                                               ; preds = %58
  %60 = load ptr, ptr %5, align 8
  %61 = load i32, ptr %60, align 4, !tbaa !9
  call void @__kmpc_for_static_fini(ptr @1, i32 %61)
  call void @llvm.lifetime.end.p0(i64 8, ptr %18) #11
  call void @llvm.lifetime.end.p0(i64 4, ptr %17) #11
  call void @llvm.lifetime.end.p0(i64 8, ptr %16) #11
  call void @llvm.lifetime.end.p0(i64 8, ptr %15) #11
  call void @llvm.lifetime.end.p0(i64 8, ptr %14) #11
  br label %62

62:                                               ; preds = %59, %4
  call void @llvm.lifetime.end.p0(i64 8, ptr %12) #11
  call void @llvm.lifetime.end.p0(i64 8, ptr %11) #11
  call void @llvm.lifetime.end.p0(i64 8, ptr %10) #11
  ret void

63:                                               ; preds = %47
  %64 = landingpad { ptr, i32 }
          catch ptr null
  %65 = extractvalue { ptr, i32 } %64, 0
  call void @__clang_call_terminate(ptr %65) #28
  unreachable
}